target datalayout = "e-m:e-p270:32:32-p271:32:32-p272:64:64-i64:64-i128:128-f80:128-n8:16:32:64-S128"
target triple = "x86_64-pc-linux-gnu"

%struct.GenContext_ = type { i8, ptr, ptr, ptr, ptr, ptr, ptr, ptr, ptr, ptr, ptr, ptr, ptr, ptr, ptr, ptr, ptr, ptr, ptr, ptr, ptr, ptr, ptr, ptr, ptr, ptr, ptr, ptr, ptr, ptr, ptr, ptr, ptr, %struct.anon.85, i32, i32, %struct.DebugContext, ptr, ptr, ptr, %struct.BEValue, i8, %union.SourceSpan, ptr, ptr, ptr, ptr }
%struct.anon.85 = type { ptr, ptr, ptr }
%struct.DebugContext = type { i16, ptr, ptr, %struct.DebugFile_, ptr, ptr, ptr, ptr }
%struct.DebugFile_ = type { i16, ptr }
%struct.BEValue = type { i8, i32, ptr, ptr, ptr }
%union.SourceSpan = type { i64 }
%struct.VHeader_ = type { i32, i32, [0 x i8] }
%struct.Decl_ = type { ptr, ptr, %union.SourceSpan, i64, %union.anon, i32, %union.anon.0, i64, ptr, ptr, ptr, %union.anon.1 }
%union.anon = type { ptr }
%union.anon.0 = type { i16 }
%union.anon.1 = type { %struct.FuncDecl }
%struct.FuncDecl = type { i32, [4 x i8], %struct.Signature_, i32, i32, %union.anon.8 }
%struct.Signature_ = type <{ %struct.CalleeAttributes, i16, i8, i32, i32, [4 x i8], ptr }>
%struct.CalleeAttributes = type { i8 }
%union.anon.8 = type { %struct.anon.9 }
%struct.anon.9 = type { i16, %union.anon.10 }
%union.anon.10 = type { ptr }
%struct.anon = type { i16, i8, i8, i32 }
%struct.Type_ = type { i32, ptr, ptr, ptr, %union.anon.90, ptr, ptr, %union.anon.92 }
%union.anon.90 = type { ptr }
%union.anon.92 = type { %struct.TypeFunction }
%struct.TypeFunction = type { ptr, ptr, ptr }
%struct.anon.2 = type { ptr, ptr, %union.anon.3 }
%union.anon.3 = type { %struct.BitStructDecl }
%struct.BitStructDecl = type { ptr, ptr, i8 }
%struct.TypeInfo_ = type { i16, ptr, %union.SourceSpan, %union.anon.56 }
%union.anon.56 = type { %struct.anon.57 }
%struct.anon.57 = type { ptr, ptr }
%struct.EnumDecl = type { ptr, ptr, ptr }
%struct.EnumConstantDecl = type { ptr, i32, i32 }

@id_counter = internal global i32 0, align 4

; Function Attrs: nounwind uwtable
define internal ptr @vec_new_(i64 noundef %0, i64 noundef %1) #0 {
  %3 = alloca i64, align 8
  %4 = alloca i64, align 8
  %5 = alloca ptr, align 8
  store i64 %0, ptr %3, align 8
  store i64 %1, ptr %4, align 8
  %6 = load i64, ptr %3, align 8
  %7 = load i64, ptr %4, align 8
  %8 = mul i64 %6, %7
  %9 = add i64 %8, 8
  %10 = call ptr @calloc_arena(i64 noundef %9)
  store ptr %10, ptr %5, align 8
  %11 = load i64, ptr %4, align 8
  %12 = trunc i64 %11 to i32
  %13 = load ptr, ptr %5, align 8
  %14 = getelementptr inbounds %struct.VHeader_, ptr %13, i32 0, i32 1
  store i32 %12, ptr %14, align 4
  %15 = load ptr, ptr %5, align 8
  ret ptr %15
}

; Function Attrs: nounwind uwtable
define dso_local ptr @llvm_get_debug_type(ptr noundef %0, ptr noundef %1) #0 {
  %3 = alloca ptr, align 8
  %4 = alloca ptr, align 8
  store ptr %0, ptr %3, align 8
  store ptr %1, ptr %4, align 8
  %5 = load ptr, ptr %3, align 8
  %6 = load ptr, ptr %4, align 8
  %7 = load ptr, ptr %3, align 8
  %8 = getelementptr inbounds %struct.GenContext_, ptr %7, i32 0, i32 36
  %9 = getelementptr inbounds %struct.DebugContext, ptr %8, i32 0, i32 3
  %10 = getelementptr inbounds %struct.DebugFile_, ptr %9, i32 0, i32 1
  %11 = load ptr, ptr %10, align 8
  %12 = call ptr @llvm_get_debug_type_internal(ptr noundef %5, ptr noundef %6, ptr noundef %11)
  ret ptr %12
}

; Function Attrs: nounwind uwtable
define internal ptr @expand_(ptr noundef %0, i64 noundef %1) #0 {
  %3 = alloca ptr, align 8
  %4 = alloca i64, align 8
  %5 = alloca ptr, align 8
  %6 = alloca ptr, align 8
  %7 = alloca i64, align 8
  store ptr %0, ptr %3, align 8
  store i64 %1, ptr %4, align 8
  %8 = load ptr, ptr %3, align 8
  %9 = icmp ne ptr %8, null
  br i1 %9, label %13, label %10

10:                                               ; preds = %2
  %11 = load i64, ptr %4, align 8
  %12 = call ptr @vec_new_(i64 noundef %11, i64 noundef 8)
  store ptr %12, ptr %5, align 8
  br label %16

13:                                               ; preds = %2
  %14 = load ptr, ptr %3, align 8
  %15 = getelementptr inbounds %struct.VHeader_, ptr %14, i64 -1
  store ptr %15, ptr %5, align 8
  br label %16

16:                                               ; preds = %13, %10
  %17 = load ptr, ptr %5, align 8
  %18 = getelementptr inbounds %struct.VHeader_, ptr %17, i32 0, i32 0
  %19 = load i32, ptr %18, align 4
  %20 = load ptr, ptr %5, align 8
  %21 = getelementptr inbounds %struct.VHeader_, ptr %20, i32 0, i32 1
  %22 = load i32, ptr %21, align 4
  %23 = icmp eq i32 %19, %22
  br i1 %23, label %24, label %49

24:                                               ; preds = %16
  %25 = load i64, ptr %4, align 8
  %26 = load ptr, ptr %5, align 8
  %27 = getelementptr inbounds %struct.VHeader_, ptr %26, i32 0, i32 1
  %28 = load i32, ptr %27, align 4
  %29 = shl i32 %28, 1
  %30 = zext i32 %29 to i64
  %31 = call ptr @vec_new_(i64 noundef %25, i64 noundef %30)
  store ptr %31, ptr %6, align 8
  %32 = load i64, ptr %4, align 8
  %33 = load ptr, ptr %5, align 8
  %34 = getelementptr inbounds %struct.VHeader_, ptr %33, i32 0, i32 1
  %35 = load i32, ptr %34, align 4
  %36 = zext i32 %35 to i64
  %37 = mul i64 %32, %36
  %38 = add i64 %37, 8
  store i64 %38, ptr %7, align 8
  %39 = load ptr, ptr %6, align 8
  %40 = load ptr, ptr %5, align 8
  %41 = load i64, ptr %7, align 8
  call void @llvm.memcpy.p0.p0.i64(ptr align 4 %39, ptr align 4 %40, i64 %41, i1 false)
  %42 = load ptr, ptr %6, align 8
  store ptr %42, ptr %5, align 8
  %43 = load ptr, ptr %5, align 8
  %44 = getelementptr inbounds %struct.VHeader_, ptr %43, i32 0, i32 1
  %45 = load i32, ptr %44, align 4
  %46 = shl i32 %45, 1
  %47 = load ptr, ptr %6, align 8
  %48 = getelementptr inbounds %struct.VHeader_, ptr %47, i32 0, i32 1
  store i32 %46, ptr %48, align 4
  br label %49

49:                                               ; preds = %24, %16
  %50 = load ptr, ptr %5, align 8
  %51 = getelementptr inbounds %struct.VHeader_, ptr %50, i32 0, i32 0
  %52 = load i32, ptr %51, align 4
  %53 = add i32 %52, 1
  store i32 %53, ptr %51, align 4
  %54 = load ptr, ptr %5, align 8
  %55 = getelementptr inbounds %struct.VHeader_, ptr %54, i64 1
  ret ptr %55
}

; Function Attrs: nounwind uwtable
define internal ptr @llvm_debug_forward_comp(ptr noundef %0, ptr noundef %1, ptr noundef %2, ptr noundef %3, ptr noundef %4, i32 noundef %5) #0 {
  %7 = alloca ptr, align 8
  %8 = alloca ptr, align 8
  %9 = alloca ptr, align 8
  %10 = alloca ptr, align 8
  %11 = alloca ptr, align 8
  %12 = alloca i32, align 4
  %13 = alloca i32, align 4
  store ptr %0, ptr %7, align 8
  store ptr %1, ptr %8, align 8
  store ptr %2, ptr %9, align 8
  store ptr %3, ptr %10, align 8
  store ptr %4, ptr %11, align 8
  store i32 %5, ptr %12, align 4
  store i32 0, ptr %13, align 4
  %14 = load ptr, ptr %10, align 8
  %15 = icmp ne ptr %14, null
  br i1 %15, label %16, label %24

16:                                               ; preds = %6
  %17 = load ptr, ptr %10, align 8
  %18 = getelementptr inbounds %struct.anon, ptr %17, i32 0, i32 3
  %19 = load i32, ptr %18, align 4
  store i32 %19, ptr %13, align 4
  %20 = load i32, ptr %13, align 4
  %21 = icmp ne i32 %20, 0
  br i1 %21, label %23, label %22

22:                                               ; preds = %16
  store i32 1, ptr %13, align 4
  br label %23

23:                                               ; preds = %22, %16
  br label %24

24:                                               ; preds = %23, %6
  %25 = load ptr, ptr %7, align 8
  %26 = getelementptr inbounds %struct.GenContext_, ptr %25, i32 0, i32 36
  %27 = getelementptr inbounds %struct.DebugContext, ptr %26, i32 0, i32 1
  %28 = load ptr, ptr %27, align 8
  %29 = load i32, ptr @id_counter, align 4
  %30 = add i32 %29, 1
  store i32 %30, ptr @id_counter, align 4
  %31 = load ptr, ptr %8, align 8
  %32 = getelementptr inbounds %struct.Type_, ptr %31, i32 0, i32 2
  %33 = load ptr, ptr %32, align 8
  %34 = load ptr, ptr %8, align 8
  %35 = getelementptr inbounds %struct.Type_, ptr %34, i32 0, i32 2
  %36 = load ptr, ptr %35, align 8
  %37 = call i64 @strlen(ptr noundef %36) #5
  %38 = load ptr, ptr %11, align 8
  %39 = load ptr, ptr %7, align 8
  %40 = getelementptr inbounds %struct.GenContext_, ptr %39, i32 0, i32 36
  %41 = getelementptr inbounds %struct.DebugContext, ptr %40, i32 0, i32 3
  %42 = getelementptr inbounds %struct.DebugFile_, ptr %41, i32 0, i32 1
  %43 = load ptr, ptr %42, align 8
  %44 = load i32, ptr %13, align 4
  %45 = load ptr, ptr %7, align 8
  %46 = getelementptr inbounds %struct.GenContext_, ptr %45, i32 0, i32 36
  %47 = load i16, ptr %46, align 8
  %48 = and i16 %47, 255
  %49 = zext i16 %48 to i32
  %50 = load ptr, ptr %8, align 8
  %51 = call i32 @type_size(ptr noundef %50)
  %52 = mul i32 %51, 8
  %53 = zext i32 %52 to i64
  %54 = load ptr, ptr %8, align 8
  %55 = call i32 @type_abi_alignment(ptr noundef %54)
  %56 = mul i32 %55, 8
  %57 = load i32, ptr %12, align 4
  %58 = load ptr, ptr %9, align 8
  %59 = load ptr, ptr %9, align 8
  %60 = call i64 @strlen(ptr noundef %59) #5
  %61 = call ptr @LLVMDIBuilderCreateReplaceableCompositeType(ptr noundef %28, i32 noundef %29, ptr noundef %33, i64 noundef %37, ptr noundef %38, ptr noundef %43, i32 noundef %44, i32 noundef %49, i64 noundef %53, i32 noundef %56, i32 noundef %57, ptr noundef %58, i64 noundef %60)
  ret ptr %61
}

; Function Attrs: nounwind uwtable
define internal ptr @llvm_debug_enum_type(ptr noundef %0, ptr noundef %1, ptr noundef %2) #0 {
  %4 = alloca ptr, align 8
  %5 = alloca i32, align 4
  %6 = alloca ptr, align 8
  %7 = alloca ptr, align 8
  %8 = alloca i32, align 4
  %9 = alloca ptr, align 8
  %10 = alloca ptr, align 8
  %11 = alloca i32, align 4
  %12 = alloca ptr, align 8
  %13 = alloca ptr, align 8
  %14 = alloca ptr, align 8
  %15 = alloca ptr, align 8
  %16 = alloca ptr, align 8
  %17 = alloca ptr, align 8
  %18 = alloca ptr, align 8
  %19 = alloca ptr, align 8
  %20 = alloca ptr, align 8
  %21 = alloca ptr, align 8
  %22 = alloca i8, align 1
  %23 = alloca i32, align 4
  %24 = alloca i32, align 4
  %25 = alloca ptr, align 8
  %26 = alloca i64, align 8
  %27 = alloca ptr, align 8
  %28 = alloca ptr, align 8
  %29 = alloca i32, align 4
  %30 = alloca ptr, align 8
  store ptr %0, ptr %14, align 8
  store ptr %1, ptr %15, align 8
  store ptr %2, ptr %16, align 8
  %31 = load ptr, ptr %15, align 8
  %32 = getelementptr inbounds %struct.Type_, ptr %31, i32 0, i32 7
  %33 = load ptr, ptr %32, align 8
  store ptr %33, ptr %17, align 8
  %34 = load ptr, ptr %14, align 8
  %35 = load ptr, ptr %15, align 8
  %36 = load ptr, ptr %17, align 8
  %37 = getelementptr inbounds %struct.Decl_, ptr %36, i32 0, i32 1
  %38 = load ptr, ptr %37, align 8
  %39 = load ptr, ptr %17, align 8
  %40 = getelementptr inbounds %struct.Decl_, ptr %39, i32 0, i32 2
  %41 = load ptr, ptr %16, align 8
  %42 = call ptr @llvm_debug_forward_comp(ptr noundef %34, ptr noundef %35, ptr noundef %38, ptr noundef %40, ptr noundef %41, i32 noundef 0)
  store ptr %42, ptr %18, align 8
  %43 = load ptr, ptr %18, align 8
  %44 = load ptr, ptr %15, align 8
  %45 = getelementptr inbounds %struct.Type_, ptr %44, i32 0, i32 6
  store ptr %43, ptr %45, align 8
  %46 = load ptr, ptr %17, align 8
  %47 = getelementptr inbounds %struct.Decl_, ptr %46, i32 0, i32 11
  %48 = getelementptr inbounds %struct.anon.2, ptr %47, i32 0, i32 2
  %49 = getelementptr inbounds %struct.EnumDecl, ptr %48, i32 0, i32 2
  %50 = load ptr, ptr %49, align 8
  %51 = getelementptr inbounds %struct.TypeInfo_, ptr %50, i32 0, i32 1
  %52 = load ptr, ptr %51, align 8
  %53 = getelementptr inbounds %struct.Type_, ptr %52, i32 0, i32 1
  %54 = load ptr, ptr %53, align 8
  store ptr %54, ptr %19, align 8
  store ptr null, ptr %20, align 8
  %55 = load ptr, ptr %17, align 8
  %56 = getelementptr inbounds %struct.Decl_, ptr %55, i32 0, i32 11
  %57 = getelementptr inbounds %struct.anon.2, ptr %56, i32 0, i32 2
  %58 = getelementptr inbounds %struct.EnumDecl, ptr %57, i32 0, i32 0
  %59 = load ptr, ptr %58, align 8
  store ptr %59, ptr %21, align 8
  %60 = load ptr, ptr %19, align 8
  store ptr %60, ptr %4, align 8
  %61 = load ptr, ptr %4, align 8
  %62 = load i32, ptr %61, align 8
  %63 = icmp uge i32 %62, 8
  br i1 %63, label %64, label %68

64:                                               ; preds = %3
  %65 = load ptr, ptr %4, align 8
  %66 = load i32, ptr %65, align 8
  %67 = icmp ule i32 %66, 12
  br label %68

68:                                               ; preds = %64, %3
  %69 = phi i1 [ false, %3 ], [ %67, %64 ]
  %70 = zext i1 %69 to i8
  store i8 %70, ptr %22, align 1
  store i32 0, ptr %23, align 4
  %71 = load ptr, ptr %21, align 8
  store ptr %71, ptr %6, align 8
  %72 = load ptr, ptr %6, align 8
  %73 = icmp ne ptr %72, null
  br i1 %73, label %75, label %74

74:                                               ; preds = %68
  store i32 0, ptr %5, align 4
  br label %80

75:                                               ; preds = %68
  %76 = load ptr, ptr %6, align 8
  store ptr %76, ptr %7, align 8
  %77 = load ptr, ptr %7, align 8
  %78 = getelementptr inbounds %struct.VHeader_, ptr %77, i64 -1
  %79 = load i32, ptr %78, align 4
  store i32 %79, ptr %5, align 4
  br label %80

80:                                               ; preds = %75, %74
  %81 = load i32, ptr %5, align 4
  store i32 %81, ptr %24, align 4
  br label %82

82:                                               ; preds = %134, %80
  %83 = load i32, ptr %23, align 4
  %84 = load i32, ptr %24, align 4
  %85 = icmp ult i32 %83, %84
  br i1 %85, label %86, label %137

86:                                               ; preds = %82
  %87 = load ptr, ptr %21, align 8
  %88 = load i32, ptr %23, align 4
  %89 = zext i32 %88 to i64
  %90 = getelementptr inbounds ptr, ptr %87, i64 %89
  %91 = load ptr, ptr %90, align 8
  store ptr %91, ptr %25, align 8
  %92 = load ptr, ptr %25, align 8
  %93 = getelementptr inbounds %struct.Decl_, ptr %92, i32 0, i32 11
  %94 = getelementptr inbounds %struct.EnumConstantDecl, ptr %93, i32 0, i32 1
  %95 = load i32, ptr %94, align 8
  %96 = zext i32 %95 to i64
  store i64 %96, ptr %26, align 8
  %97 = load ptr, ptr %14, align 8
  %98 = getelementptr inbounds %struct.GenContext_, ptr %97, i32 0, i32 36
  %99 = getelementptr inbounds %struct.DebugContext, ptr %98, i32 0, i32 1
  %100 = load ptr, ptr %99, align 8
  %101 = load ptr, ptr %25, align 8
  %102 = getelementptr inbounds %struct.Decl_, ptr %101, i32 0, i32 0
  %103 = load ptr, ptr %102, align 8
  %104 = load ptr, ptr %25, align 8
  %105 = getelementptr inbounds %struct.Decl_, ptr %104, i32 0, i32 0
  %106 = load ptr, ptr %105, align 8
  %107 = call i64 @strlen(ptr noundef %106) #5
  %108 = load i64, ptr %26, align 8
  %109 = load i8, ptr %22, align 1
  %110 = trunc i8 %109 to i1
  %111 = zext i1 %110 to i32
  %112 = call ptr @LLVMDIBuilderCreateEnumerator(ptr noundef %100, ptr noundef %103, i64 noundef %107, i64 noundef %108, i32 noundef %111)
  store ptr %112, ptr %27, align 8
  br label %113

113:                                              ; preds = %86
  %114 = load ptr, ptr %20, align 8
  %115 = call ptr @expand_(ptr noundef %114, i64 noundef 8)
  store ptr %115, ptr %28, align 8
  %116 = load ptr, ptr %28, align 8
  store ptr %116, ptr %20, align 8
  %117 = load ptr, ptr %27, align 8
  %118 = load ptr, ptr %20, align 8
  %119 = load ptr, ptr %20, align 8
  store ptr %119, ptr %9, align 8
  %120 = load ptr, ptr %9, align 8
  %121 = icmp ne ptr %120, null
  br i1 %121, label %123, label %122

122:                                              ; preds = %113
  store i32 0, ptr %8, align 4
  br label %128

123:                                              ; preds = %113
  %124 = load ptr, ptr %9, align 8
  store ptr %124, ptr %10, align 8
  %125 = load ptr, ptr %10, align 8
  %126 = getelementptr inbounds %struct.VHeader_, ptr %125, i64 -1
  %127 = load i32, ptr %126, align 4
  store i32 %127, ptr %8, align 4
  br label %128

128:                                              ; preds = %123, %122
  %129 = load i32, ptr %8, align 4
  %130 = sub i32 %129, 1
  %131 = zext i32 %130 to i64
  %132 = getelementptr inbounds ptr, ptr %118, i64 %131
  store ptr %117, ptr %132, align 8
  br label %133

133:                                              ; preds = %128
  br label %134

134:                                              ; preds = %133
  %135 = load i32, ptr %23, align 4
  %136 = add i32 %135, 1
  store i32 %136, ptr %23, align 4
  br label %82, !llvm.loop !9

137:                                              ; preds = %82
  %138 = load ptr, ptr %17, align 8
  %139 = getelementptr inbounds %struct.Decl_, ptr %138, i32 0, i32 2
  %140 = getelementptr inbounds %struct.anon, ptr %139, i32 0, i32 3
  %141 = load i32, ptr %140, align 4
  store i32 %141, ptr %29, align 4
  %142 = load ptr, ptr %14, align 8
  %143 = getelementptr inbounds %struct.GenContext_, ptr %142, i32 0, i32 36
  %144 = getelementptr inbounds %struct.DebugContext, ptr %143, i32 0, i32 1
  %145 = load ptr, ptr %144, align 8
  %146 = load ptr, ptr %16, align 8
  %147 = load ptr, ptr %15, align 8
  %148 = getelementptr inbounds %struct.Type_, ptr %147, i32 0, i32 7
  %149 = load ptr, ptr %148, align 8
  %150 = getelementptr inbounds %struct.Decl_, ptr %149, i32 0, i32 0
  %151 = load ptr, ptr %150, align 8
  %152 = load ptr, ptr %15, align 8
  %153 = getelementptr inbounds %struct.Type_, ptr %152, i32 0, i32 7
  %154 = load ptr, ptr %153, align 8
  %155 = getelementptr inbounds %struct.Decl_, ptr %154, i32 0, i32 0
  %156 = load ptr, ptr %155, align 8
  %157 = call i64 @strlen(ptr noundef %156) #5
  %158 = load ptr, ptr %14, align 8
  %159 = getelementptr inbounds %struct.GenContext_, ptr %158, i32 0, i32 36
  %160 = getelementptr inbounds %struct.DebugContext, ptr %159, i32 0, i32 3
  %161 = getelementptr inbounds %struct.DebugFile_, ptr %160, i32 0, i32 1
  %162 = load ptr, ptr %161, align 8
  %163 = load i32, ptr %29, align 4
  %164 = icmp ne i32 %163, 0
  br i1 %164, label %165, label %167

165:                                              ; preds = %137
  %166 = load i32, ptr %29, align 4
  br label %168

167:                                              ; preds = %137
  br label %168

168:                                              ; preds = %167, %165
  %169 = phi i32 [ %166, %165 ], [ 1, %167 ]
  %170 = load ptr, ptr %15, align 8
  %171 = call i32 @type_size(ptr noundef %170)
  %172 = mul i32 %171, 8
  %173 = zext i32 %172 to i64
  %174 = load ptr, ptr %15, align 8
  %175 = call i32 @type_abi_alignment(ptr noundef %174)
  %176 = mul i32 %175, 8
  %177 = load ptr, ptr %20, align 8
  %178 = load ptr, ptr %20, align 8
  store ptr %178, ptr %12, align 8
  %179 = load ptr, ptr %12, align 8
  %180 = icmp ne ptr %179, null
  br i1 %180, label %182, label %181

181:                                              ; preds = %168
  store i32 0, ptr %11, align 4
  br label %187

182:                                              ; preds = %168
  %183 = load ptr, ptr %12, align 8
  store ptr %183, ptr %13, align 8
  %184 = load ptr, ptr %13, align 8
  %185 = getelementptr inbounds %struct.VHeader_, ptr %184, i64 -1
  %186 = load i32, ptr %185, align 4
  store i32 %186, ptr %11, align 4
  br label %187

187:                                              ; preds = %182, %181
  %188 = load i32, ptr %11, align 4
  %189 = load ptr, ptr %14, align 8
  %190 = load ptr, ptr %19, align 8
  %191 = call ptr @llvm_get_debug_type(ptr noundef %189, ptr noundef %190)
  %192 = call ptr @LLVMDIBuilderCreateEnumerationType(ptr noundef %145, ptr noundef %146, ptr noundef %151, i64 noundef %157, ptr noundef %162, i32 noundef %169, i64 noundef %173, i32 noundef %176, ptr noundef %177, i32 noundef %188, ptr noundef %191)
  store ptr %192, ptr %30, align 8
  %193 = load ptr, ptr %18, align 8
  %194 = load ptr, ptr %30, align 8
  call void @LLVMMetadataReplaceAllUsesWith(ptr noundef %193, ptr noundef %194)
  %195 = load ptr, ptr %30, align 8
  ret ptr %195
}