; Function Attrs: nounwind uwtable
define internal fastcc noundef ptr @llvm_debug_enum_type(ptr nocapture noundef readonly %0, ptr noundef %1, ptr noundef %2) unnamed_addr #0 {
  %4 = getelementptr inbounds i8, ptr %1, i64 56
  %5 = load ptr, ptr %4, align 8
  %6 = getelementptr inbounds i8, ptr %5, i64 8
  %7 = load ptr, ptr %6, align 8
  %8 = getelementptr inbounds i8, ptr %5, i64 20
  %9 = load i32, ptr %8, align 4
  %spec.store.select.i = tail call i32 @llvm.umax.i32(i32 %9, i32 1)
  %10 = getelementptr inbounds i8, ptr %0, i64 296
  %11 = getelementptr inbounds i8, ptr %0, i64 304
  %12 = load ptr, ptr %11, align 8
  %13 = load i32, ptr @id_counter, align 4
  %14 = add i32 %13, 1
  store i32 %14, ptr @id_counter, align 4
  %15 = getelementptr inbounds i8, ptr %1, i64 16
  %16 = load ptr, ptr %15, align 8
  %17 = tail call i64 @strlen(ptr noundef nonnull dereferenceable(1) %16) #9
  %18 = getelementptr inbounds i8, ptr %0, i64 328
  %19 = load ptr, ptr %18, align 8
  %20 = load i16, ptr %10, align 8
  %21 = and i16 %20, 255
  %22 = zext nneg i16 %21 to i32
  %23 = tail call i32 @type_size(ptr noundef %1) #8
  %24 = shl i32 %23, 3
  %25 = zext i32 %24 to i64
  %26 = tail call i32 @type_abi_alignment(ptr noundef %1) #8
  %27 = shl i32 %26, 3
  %28 = tail call i64 @strlen(ptr noundef nonnull dereferenceable(1) %7) #9
  %29 = tail call ptr @LLVMDIBuilderCreateReplaceableCompositeType(ptr noundef %12, i32 noundef %13, ptr noundef %16, i64 noundef %17, ptr noundef %2, ptr noundef %19, i32 noundef %spec.store.select.i, i32 noundef %22, i64 noundef %25, i32 noundef %27, i32 noundef 0, ptr noundef %7, i64 noundef %28) #8
  %30 = getelementptr inbounds i8, ptr %1, i64 48
  store ptr %29, ptr %30, align 8
  %31 = getelementptr inbounds i8, ptr %5, i64 96
  %32 = getelementptr inbounds i8, ptr %5, i64 112
  %33 = load ptr, ptr %32, align 8
  %34 = getelementptr inbounds i8, ptr %33, i64 8
  %35 = load ptr, ptr %34, align 8
  %36 = getelementptr inbounds i8, ptr %35, i64 8
  %37 = load ptr, ptr %36, align 8
  %38 = load ptr, ptr %31, align 8
  %39 = load i32, ptr %37, align 8
  %40 = add i32 %39, -8
  %narrow = icmp ult i32 %40, 5
  %41 = zext i1 %narrow to i32
  %.not = icmp eq ptr %38, null
  br i1 %.not, label %._crit_edge, label %42

42:                                               ; preds = %3
  %43 = getelementptr inbounds i8, ptr %38, i64 -8
  %44 = load i32, ptr %43, align 4
  %.not70 = icmp eq i32 %44, 0
  br i1 %.not70, label %._crit_edge, label %.lr.ph.preheader

.lr.ph.preheader:                                 ; preds = %42
  %wide.trip.count = zext i32 %44 to i64
  br label %.lr.ph

.lr.ph:                                           ; preds = %.lr.ph.preheader, %77
  %indvars.iv = phi i64 [ 0, %.lr.ph.preheader ], [ %indvars.iv.next, %77 ]
  %.06069 = phi ptr [ null, %.lr.ph.preheader ], [ %80, %77 ]
  %45 = getelementptr inbounds ptr, ptr %38, i64 %indvars.iv
  %46 = load ptr, ptr %45, align 8
  %47 = getelementptr inbounds i8, ptr %46, i64 88
  %48 = load i32, ptr %47, align 8
  %49 = zext i32 %48 to i64
  %50 = load ptr, ptr %11, align 8
  %51 = load ptr, ptr %46, align 8
  %52 = tail call i64 @strlen(ptr noundef nonnull dereferenceable(1) %51) #9
  %53 = tail call ptr @LLVMDIBuilderCreateEnumerator(ptr noundef %50, ptr noundef %51, i64 noundef %52, i64 noundef %49, i32 noundef %41) #8
  %.not.i = icmp eq ptr %.06069, null
  br i1 %.not.i, label %54, label %57

54:                                               ; preds = %.lr.ph
  %55 = tail call ptr @calloc_arena(i64 noundef 72) #8
  %56 = getelementptr inbounds i8, ptr %55, i64 4
  store i32 8, ptr %56, align 4
  br label %59

57:                                               ; preds = %.lr.ph
  %58 = getelementptr inbounds i8, ptr %.06069, i64 -8
  %.phi.trans.insert.i = getelementptr inbounds i8, ptr %.06069, i64 -4
  %.pre.i = load i32, ptr %.phi.trans.insert.i, align 4
  br label %59

59:                                               ; preds = %57, %54
  %60 = phi i32 [ %.pre.i, %57 ], [ 8, %54 ]
  %.0.i = phi ptr [ %58, %57 ], [ %55, %54 ]
  %61 = load i32, ptr %.0.i, align 4
  %62 = icmp eq i32 %61, %60
  br i1 %62, label %63, label %77

63:                                               ; preds = %59
  %64 = getelementptr inbounds i8, ptr %.0.i, i64 4
  %65 = shl i32 %60, 1
  %66 = zext i32 %65 to i64
  %67 = shl nuw nsw i64 %66, 3
  %68 = or disjoint i64 %67, 8
  %69 = tail call ptr @calloc_arena(i64 noundef %68) #8
  %70 = getelementptr inbounds i8, ptr %69, i64 4
  store i32 %65, ptr %70, align 4
  %71 = load i32, ptr %64, align 4
  %72 = zext i32 %71 to i64
  %73 = shl nuw nsw i64 %72, 3
  %74 = add nuw nsw i64 %73, 8
  tail call void @llvm.memcpy.p0.p0.i64(ptr noundef nonnull align 4 dereferenceable(1) %69, ptr noundef nonnull align 4 dereferenceable(1) %.0.i, i64 %74, i1 false)
  %75 = load i32, ptr %70, align 4
  %76 = shl i32 %75, 1
  store i32 %76, ptr %70, align 4
  %.pre18.i = load i32, ptr %69, align 4
  br label %77

77:                                               ; preds = %59, %63
  %78 = phi i32 [ %.pre18.i, %63 ], [ %61, %59 ]
  %.1.i = phi ptr [ %69, %63 ], [ %.0.i, %59 ]
  %79 = add i32 %78, 1
  store i32 %79, ptr %.1.i, align 4
  %80 = getelementptr inbounds i8, ptr %.1.i, i64 8
  %81 = zext i32 %78 to i64
  %82 = getelementptr inbounds ptr, ptr %80, i64 %81
  store ptr %53, ptr %82, align 8
  %indvars.iv.next = add nuw nsw i64 %indvars.iv, 1
  %exitcond.not = icmp eq i64 %indvars.iv.next, %wide.trip.count
  br i1 %exitcond.not, label %._crit_edge, label %.lr.ph, !llvm.loop !9

._crit_edge:                                      ; preds = %77, %3, %42
  %.060.lcssa = phi ptr [ null, %42 ], [ null, %3 ], [ %80, %77 ]
  %83 = load i32, ptr %8, align 4
  %84 = load ptr, ptr %11, align 8
  %85 = load ptr, ptr %4, align 8
  %86 = load ptr, ptr %85, align 8
  %87 = tail call i64 @strlen(ptr noundef nonnull dereferenceable(1) %86) #9
  %88 = load ptr, ptr %18, align 8
  %89 = tail call i32 @type_size(ptr noundef %1) #8
  %90 = tail call i32 @type_abi_alignment(ptr noundef %1) #8
  %.not66 = icmp eq ptr %.060.lcssa, null
  br i1 %.not66, label %94, label %91

91:                                               ; preds = %._crit_edge
  %92 = getelementptr inbounds i8, ptr %.060.lcssa, i64 -8
  %93 = load i32, ptr %92, align 4
  br label %94

94:                                               ; preds = %._crit_edge, %91
  %.059 = phi i32 [ %93, %91 ], [ 0, %._crit_edge ]
  %95 = shl i32 %90, 3
  %96 = shl i32 %89, 3
  %97 = zext i32 %96 to i64
  %98 = tail call i32 @llvm.umax.i32(i32 %83, i32 1)
  %99 = load ptr, ptr %18, align 8
  %100 = tail call fastcc ptr @llvm_get_debug_type_internal(ptr noundef nonnull %0, ptr noundef nonnull %37, ptr noundef %99)
  %101 = tail call ptr @LLVMDIBuilderCreateEnumerationType(ptr noundef %84, ptr noundef %2, ptr noundef %86, i64 noundef %87, ptr noundef %88, i32 noundef %98, i64 noundef %97, i32 noundef %95, ptr noundef %.060.lcssa, i32 noundef %.059, ptr noundef %100) #8
  tail call void @LLVMMetadataReplaceAllUsesWith(ptr noundef %29, ptr noundef %101) #8
  ret ptr %101
}